; Function Attrs: mustprogress nofree norecurse nounwind willreturn memory(readwrite, inaccessiblemem: none) uwtable
define noundef zeroext i1 @_ZNK5arrow2io12ReadableFile6closedEv(ptr nocapture noundef nonnull readonly align 8 dereferenceable(48) %this) unnamed_addr #8 align 2 personality ptr @__gxx_personality_v0 {
entry:
  %impl_ = getelementptr inbounds i8, ptr %this, i64 40
  %0 = load ptr, ptr %impl_, align 8
  %fd_.i = getelementptr inbounds i8, ptr %0, i64 48
  %1 = load atomic i32, ptr %fd_.i seq_cst, align 4
  %cmp.i.i.not = icmp eq i32 %1, -1
  ret i1 %cmp.i.i.not
}